; Function Attrs: nounwind uwtable
define internal fastcc void @GC_print_smashed_obj(ptr noundef %0, ptr noundef %1, ptr noundef %2) unnamed_addr #1 {
  %.b.i = load i1, ptr @GC_is_initialized, align 4
  br i1 %.b.i, label %4, label %GC_base.exit

4:                                                ; preds = %3
  %5 = ptrtoint ptr %1 to i64
  %6 = lshr i64 %5, 22
  %7 = and i64 %6, 2047
  %8 = getelementptr inbounds nuw [2048 x ptr], ptr getelementptr inbounds nuw (i8, ptr @GC_arrays, i64 166400), i64 0, i64 %7
  %9 = load ptr, ptr getelementptr inbounds nuw (i8, ptr @GC_arrays, i64 232), align 8
  br label %10

10:                                               ; preds = %10, %4
  %.027.in.i = phi ptr [ %8, %4 ], [ %16, %10 ]
  %.027.i = load ptr, ptr %.027.in.i, align 8
  %11 = getelementptr inbounds nuw i8, ptr %.027.i, i64 8208
  %12 = load i64, ptr %11, align 8
  %13 = icmp ne i64 %12, %6
  %14 = icmp ne ptr %.027.i, %9
  %15 = select i1 %13, i1 %14, i1 false
  %16 = getelementptr inbounds nuw i8, ptr %.027.i, i64 8216
  br i1 %15, label %10, label %17, !llvm.loop !20

17:                                               ; preds = %10
  %18 = lshr i64 %5, 12
  %19 = and i64 %18, 1023
  %20 = getelementptr inbounds nuw [1024 x ptr], ptr %.027.i, i64 0, i64 %19
  %21 = load ptr, ptr %20, align 8
  %22 = icmp eq ptr %21, null
  br i1 %22, label %GC_base.exit, label %23

23:                                               ; preds = %17
  %24 = and i64 %5, -4096
  %25 = inttoptr i64 %24 to ptr
  %26 = icmp ult ptr %21, inttoptr (i64 4096 to ptr)
  br i1 %26, label %.lr.ph.i.i, label %GC_find_starting_hblk.exit.i

.lr.ph.i.i:                                       ; preds = %23, %GC_find_header.exit.i.i
  %.012.i.i = phi ptr [ %.0.i.i, %GC_find_header.exit.i.i ], [ %21, %23 ]
  %.0811.i.i = phi ptr [ %29, %GC_find_header.exit.i.i ], [ %25, %23 ]
  %27 = ptrtoint ptr %.012.i.i to i64
  %28 = sub nsw i64 0, %27
  %29 = getelementptr inbounds %struct.GC_hblk_s, ptr %.0811.i.i, i64 %28
  %30 = ptrtoint ptr %29 to i64
  %31 = lshr i64 %30, 22
  %32 = and i64 %31, 2047
  %33 = getelementptr inbounds nuw [2048 x ptr], ptr getelementptr inbounds nuw (i8, ptr @GC_arrays, i64 166400), i64 0, i64 %32
  br label %34

34:                                               ; preds = %34, %.lr.ph.i.i
  %.0.in.i.i.i = phi ptr [ %33, %.lr.ph.i.i ], [ %40, %34 ]
  %.0.i.i.i = load ptr, ptr %.0.in.i.i.i, align 8
  %35 = getelementptr inbounds nuw i8, ptr %.0.i.i.i, i64 8208
  %36 = load i64, ptr %35, align 8
  %37 = icmp ne i64 %36, %31
  %38 = icmp ne ptr %.0.i.i.i, %9
  %39 = select i1 %37, i1 %38, i1 false
  %40 = getelementptr inbounds nuw i8, ptr %.0.i.i.i, i64 8216
  br i1 %39, label %34, label %GC_find_header.exit.i.i, !llvm.loop !15

GC_find_header.exit.i.i:                          ; preds = %34
  %41 = lshr i64 %30, 12
  %42 = and i64 %41, 1023
  %43 = getelementptr inbounds nuw [1024 x ptr], ptr %.0.i.i.i, i64 0, i64 %42
  %.0.i.i = load ptr, ptr %43, align 8
  %44 = icmp ult ptr %.0.i.i, inttoptr (i64 4096 to ptr)
  br i1 %44, label %.lr.ph.i.i, label %GC_find_starting_hblk.exit.i, !llvm.loop !19

GC_find_starting_hblk.exit.i:                     ; preds = %GC_find_header.exit.i.i, %23
  %.032.i = phi ptr [ %21, %23 ], [ %.0.i.i, %GC_find_header.exit.i.i ]
  %.028.i = phi ptr [ %25, %23 ], [ %29, %GC_find_header.exit.i.i ]
  %.026.i = phi ptr [ %1, %23 ], [ %29, %GC_find_header.exit.i.i ]
  %45 = getelementptr inbounds nuw i8, ptr %.032.i, i64 25
  %46 = load i8, ptr %45, align 1
  %47 = and i8 %46, 4
  %.not.i = icmp eq i8 %47, 0
  br i1 %.not.i, label %48, label %GC_base.exit

48:                                               ; preds = %GC_find_starting_hblk.exit.i
  %49 = ptrtoint ptr %.026.i to i64
  %50 = and i64 %49, -8
  %51 = inttoptr i64 %50 to ptr
  %52 = getelementptr inbounds nuw i8, ptr %.032.i, i64 32
  %53 = load i64, ptr %52, align 8
  %54 = and i64 %49, 4088
  %55 = urem i64 %54, %53
  %56 = sub nsw i64 0, %55
  %57 = getelementptr inbounds i8, ptr %51, i64 %56
  %58 = getelementptr inbounds i8, ptr %57, i64 %53
  %59 = getelementptr inbounds nuw i8, ptr %.028.i, i64 4096
  %60 = icmp ule ptr %58, %59
  %61 = icmp ugt i64 %53, 4096
  %or.cond.not35.i = or i1 %61, %60
  %.not30.i = icmp ult ptr %1, %58
  %or.cond31.i = and i1 %.not30.i, %or.cond.not35.i
  %spec.select.i = select i1 %or.cond31.i, ptr %57, ptr null
  br label %GC_base.exit

GC_base.exit:                                     ; preds = %3, %17, %GC_find_starting_hblk.exit.i, %48
  %.0.i = phi ptr [ null, %3 ], [ null, %17 ], [ null, %GC_find_starting_hblk.exit.i ], [ %spec.select.i, %48 ]
  %62 = getelementptr inbounds nuw i8, ptr %.0.i, i64 16
  %.not = icmp ugt ptr %2, %62
  br i1 %.not, label %63, label %66

63:                                               ; preds = %GC_base.exit
  %64 = load ptr, ptr %.0.i, align 8
  %65 = icmp eq ptr %64, null
  br i1 %65, label %66, label %88

66:                                               ; preds = %63, %GC_base.exit
  %67 = ptrtoint ptr %.0.i to i64
  %68 = lshr i64 %67, 22
  %69 = and i64 %68, 2047
  %70 = getelementptr inbounds nuw [2048 x ptr], ptr getelementptr inbounds nuw (i8, ptr @GC_arrays, i64 166400), i64 0, i64 %69
  %71 = load ptr, ptr getelementptr inbounds nuw (i8, ptr @GC_arrays, i64 232), align 8
  br label %72

72:                                               ; preds = %72, %66
  %.0.in.i.i = phi ptr [ %70, %66 ], [ %78, %72 ]
  %.0.i.i16 = load ptr, ptr %.0.in.i.i, align 8
  %73 = getelementptr inbounds nuw i8, ptr %.0.i.i16, i64 8208
  %74 = load i64, ptr %73, align 8
  %75 = icmp ne i64 %74, %68
  %76 = icmp ne ptr %.0.i.i16, %71
  %77 = select i1 %75, i1 %76, i1 false
  %78 = getelementptr inbounds nuw i8, ptr %.0.i.i16, i64 8216
  br i1 %77, label %72, label %GC_size.exit, !llvm.loop !15

GC_size.exit:                                     ; preds = %72
  %79 = lshr i64 %67, 12
  %80 = and i64 %79, 1023
  %81 = getelementptr inbounds nuw [1024 x ptr], ptr %.0.i.i16, i64 0, i64 %80
  %82 = load ptr, ptr %81, align 8
  %83 = getelementptr inbounds nuw i8, ptr %82, i64 32
  %84 = load i64, ptr %83, align 8
  %85 = load i32, ptr @GC_all_interior_pointers, align 4
  %86 = sext i32 %85 to i64
  %.neg = add i64 %84, -40
  %87 = add i64 %.neg, %86
  tail call void (ptr, ...) @GC_err_printf(ptr noundef nonnull @.str.197, ptr noundef %0, ptr noundef %2, ptr noundef %1, i64 noundef %87)
  br label %99

88:                                               ; preds = %63
  %89 = icmp ult ptr %64, inttoptr (i64 4096 to ptr)
  br i1 %89, label %93, label %90

90:                                               ; preds = %88
  %91 = load i8, ptr %64, align 1
  %92 = icmp eq i8 %91, 0
  %spec.select = select i1 %92, ptr @.str.200, ptr %64
  br label %93

93:                                               ; preds = %90, %88
  %94 = phi ptr [ @.str.199, %88 ], [ %spec.select, %90 ]
  %95 = getelementptr inbounds nuw i8, ptr %.0.i, i64 8
  %96 = load i64, ptr %95, align 8
  %97 = trunc i64 %96 to i32
  %98 = load i64, ptr %62, align 8
  tail call void (ptr, ...) @GC_err_printf(ptr noundef nonnull @.str.198, ptr noundef %0, ptr noundef nonnull %2, ptr noundef %1, ptr noundef nonnull %94, i32 noundef %97, i64 noundef %98)
  br label %99

99:                                               ; preds = %93, %GC_size.exit
  ret void
}